target datalayout = "e-m:e-p270:32:32-p271:32:32-p272:64:64-i64:64-i128:128-f80:128-n8:16:32:64-S128"
target triple = "x86_64-pc-linux-gnu"

%struct.addrinfo = type { i32, i32, i32, i32, i32, ptr, ptr, ptr }

@.str.9 = private unnamed_addr constant [4 x i8] c"IP4\00", align 1
@.str.12 = private unnamed_addr constant [4 x i8] c"IP6\00", align 1

; Function Attrs: nounwind uwtable
define internal i32 @resolve_destination(ptr noundef %0, i32 noundef %1, ptr noundef %2, i32 noundef %3) #0 {
  %5 = alloca i32, align 4
  %6 = alloca ptr, align 8
  %7 = alloca i32, align 4
  %8 = alloca ptr, align 8
  %9 = alloca i32, align 4
  %10 = alloca %struct.addrinfo, align 8
  %11 = alloca ptr, align 8
  %12 = alloca i32, align 4
  %13 = alloca i32, align 4
  store ptr %0, ptr %6, align 8, !tbaa !4
  store i32 %1, ptr %7, align 4, !tbaa !9
  store ptr %2, ptr %8, align 8, !tbaa !4
  store i32 %3, ptr %9, align 4, !tbaa !9
  call void @llvm.lifetime.start.p0(i64 48, ptr %10) #8
  call void @llvm.memset.p0.i64(ptr align 8 %10, i8 0, i64 48, i1 false)
  call void @llvm.lifetime.start.p0(i64 8, ptr %11) #8
  call void @llvm.lifetime.start.p0(i64 4, ptr %12) #8
  %14 = load ptr, ptr %8, align 8, !tbaa !4
  %15 = load i32, ptr %9, align 4, !tbaa !9
  %16 = sext i32 %15 to i64
  %17 = call i64 @av_strlcpy(ptr noundef %14, ptr noundef @.str.9, i64 noundef %16)
  %18 = load ptr, ptr %6, align 8, !tbaa !4
  %19 = getelementptr inbounds i8, ptr %18, i64 0
  %20 = load i8, ptr %19, align 1, !tbaa !69
  %21 = icmp ne i8 %20, 0
  br i1 %21, label %23, label %22

22:                                               ; preds = %4
  store i32 0, ptr %5, align 4
  store i32 1, ptr %13, align 4
  br label %54

23:                                               ; preds = %4
  %24 = load ptr, ptr %6, align 8, !tbaa !4
  %25 = call i32 @getaddrinfo(ptr noundef %24, ptr noundef null, ptr noundef %10, ptr noundef %11)
  %26 = icmp ne i32 %25, 0
  br i1 %26, label %27, label %28

27:                                               ; preds = %23
  store i32 0, ptr %5, align 4
  store i32 1, ptr %13, align 4
  br label %54

28:                                               ; preds = %23
  %29 = load ptr, ptr %11, align 8, !tbaa !83
  %30 = getelementptr inbounds nuw %struct.addrinfo, ptr %29, i32 0, i32 5
  %31 = load ptr, ptr %30, align 8, !tbaa !85
  %32 = load ptr, ptr %11, align 8, !tbaa !83
  %33 = getelementptr inbounds nuw %struct.addrinfo, ptr %32, i32 0, i32 4
  %34 = load i32, ptr %33, align 8, !tbaa !88
  %35 = load ptr, ptr %6, align 8, !tbaa !4
  %36 = load i32, ptr %7, align 4, !tbaa !9
  %37 = call i32 @getnameinfo(ptr noundef %31, i32 noundef %34, ptr noundef %35, i32 noundef %36, ptr noundef null, i32 noundef 0, i32 noundef 1)
  %38 = load ptr, ptr %11, align 8, !tbaa !83
  %39 = getelementptr inbounds nuw %struct.addrinfo, ptr %38, i32 0, i32 1
  %40 = load i32, ptr %39, align 4, !tbaa !89
  %41 = icmp eq i32 %40, 10
  br i1 %41, label %42, label %47

42:                                               ; preds = %28
  %43 = load ptr, ptr %8, align 8, !tbaa !4
  %44 = load i32, ptr %9, align 4, !tbaa !9
  %45 = sext i32 %44 to i64
  %46 = call i64 @av_strlcpy(ptr noundef %43, ptr noundef @.str.12, i64 noundef %45)
  br label %47

47:                                               ; preds = %42, %28
  %48 = load ptr, ptr %11, align 8, !tbaa !83
  %49 = getelementptr inbounds nuw %struct.addrinfo, ptr %48, i32 0, i32 5
  %50 = load ptr, ptr %49, align 8, !tbaa !85
  %51 = call i32 @ff_is_multicast_address(ptr noundef %50)
  store i32 %51, ptr %12, align 4, !tbaa !9
  %52 = load ptr, ptr %11, align 8, !tbaa !83
  call void @freeaddrinfo(ptr noundef %52) #8
  %53 = load i32, ptr %12, align 4, !tbaa !9
  store i32 %53, ptr %5, align 4
  store i32 1, ptr %13, align 4
  br label %54

54:                                               ; preds = %47, %27, %22
  call void @llvm.lifetime.end.p0(i64 4, ptr %12) #8
  call void @llvm.lifetime.end.p0(i64 8, ptr %11) #8
  call void @llvm.lifetime.end.p0(i64 48, ptr %10) #8
  %55 = load i32, ptr %5, align 4
  ret i32 %55
}