; Function Attrs: nounwind uwtable
define internal fastcc i32 @resolve_destination(ptr noundef nonnull %0, ptr noundef nonnull %1) unnamed_addr #0 {
  %3 = alloca %struct.addrinfo, align 8
  %4 = alloca ptr, align 8
  call void @llvm.lifetime.start.p0(i64 48, ptr nonnull %3) #10
  call void @llvm.memset.p0.i64(ptr noundef nonnull align 8 dereferenceable(48) %3, i8 0, i64 48, i1 false)
  call void @llvm.lifetime.start.p0(i64 8, ptr nonnull %4) #10
  %5 = tail call i64 @av_strlcpy(ptr noundef nonnull %1, ptr noundef nonnull @.str.9, i64 noundef 5) #10
  %6 = load i8, ptr %0, align 1, !tbaa !48
  %.not = icmp eq i8 %6, 0
  br i1 %.not, label %28, label %7

7:                                                ; preds = %2
  %8 = call i32 @getaddrinfo(ptr noundef nonnull %0, ptr noundef null, ptr noundef nonnull %3, ptr noundef nonnull %4) #10
  %.not9 = icmp eq i32 %8, 0
  br i1 %.not9, label %9, label %28

9:                                                ; preds = %7
  %10 = load ptr, ptr %4, align 8, !tbaa !80
  %11 = getelementptr inbounds nuw i8, ptr %10, i64 24
  %12 = load ptr, ptr %11, align 8, !tbaa !82
  %13 = getelementptr inbounds nuw i8, ptr %10, i64 16
  %14 = load i32, ptr %13, align 8, !tbaa !85
  %15 = call i32 @getnameinfo(ptr noundef %12, i32 noundef %14, ptr noundef nonnull %0, i32 noundef 32, ptr noundef null, i32 noundef 0, i32 noundef 1) #10
  %16 = load ptr, ptr %4, align 8, !tbaa !80
  %17 = getelementptr inbounds nuw i8, ptr %16, i64 4
  %18 = load i32, ptr %17, align 4, !tbaa !86
  %19 = icmp eq i32 %18, 10
  br i1 %19, label %20, label %22

20:                                               ; preds = %9
  %21 = call i64 @av_strlcpy(ptr noundef nonnull %1, ptr noundef nonnull @.str.12, i64 noundef 5) #10
  %.pre = load ptr, ptr %4, align 8, !tbaa !80
  br label %22

22:                                               ; preds = %20, %9
  %23 = phi ptr [ %.pre, %20 ], [ %16, %9 ]
  %24 = getelementptr inbounds nuw i8, ptr %23, i64 24
  %25 = load ptr, ptr %24, align 8, !tbaa !82
  %26 = call i32 @ff_is_multicast_address(ptr noundef %25) #10
  %27 = load ptr, ptr %4, align 8, !tbaa !80
  call void @freeaddrinfo(ptr noundef %27) #10
  br label %28

28:                                               ; preds = %7, %2, %22
  %.0 = phi i32 [ %26, %22 ], [ 0, %2 ], [ 0, %7 ]
  call void @llvm.lifetime.end.p0(i64 8, ptr nonnull %4) #10
  call void @llvm.lifetime.end.p0(i64 48, ptr nonnull %3) #10
  ret i32 %.0
}